target datalayout = "e-m:e-p270:32:32-p271:32:32-p272:64:64-i64:64-i128:128-f80:128-n8:16:32:64-S128"
target triple = "x86_64-pc-linux-gnu"

%struct.cbs_st = type { ptr, i64 }
%struct.ssl_st = type { i32, i16, i16, ptr, ptr, ptr, ptr, ptr, i32, i32, ptr, ptr, i32, i32, ptr, ptr, ptr, ptr, ptr, ptr, ptr, ptr, i32, i32, [32 x i8], ptr, ptr, ptr, ptr, ptr, ptr, ptr, i64, %struct.crypto_ex_data_st, ptr, i32, i32, i32, i32, i16, ptr, i32, i64, ptr, ptr, ptr, ptr, ptr, ptr, i32, i32, ptr, ptr, i8, i8, i32 }
%struct.crypto_ex_data_st = type { ptr }
%struct.ssl3_state_st = type { [8 x i8], [8 x i8], [32 x i8], [32 x i8], i8, i8, %struct.ssl3_buffer_st, %struct.ssl3_buffer_st, %struct.ssl3_record_st, i8, i32, i32, i32, i32, ptr, ptr, %struct.env_md_ctx_st, %struct.env_md_ctx_st, i8, i32, [2 x i8], i32, i8, i8, ptr, ptr, ptr, %struct.anon, [64 x i8], i8, [64 x i8], i8, i32, i32, ptr, i64, ptr, i64, i8, [64 x i8] }
%struct.ssl3_buffer_st = type { ptr, i16, i16, i16 }
%struct.ssl3_record_st = type { i8, i16, ptr }
%struct.env_md_ctx_st = type { ptr, ptr, ptr, ptr }
%struct.anon = type { [64 x i8], i32, [64 x i8], i32, i64, i32, ptr, i32, i32, %union.anon, %union.anon.0, i8, i32, ptr, ptr, i64, ptr, i8, i8, i8, i8, i32, i8, ptr, i64, i8, ptr, i8, i8, i8, %struct.ssl_ecdh_ctx_st, ptr, i16 }
%union.anon = type { i32 }
%union.anon.0 = type { i16 }
%struct.ssl_ecdh_ctx_st = type { ptr, ptr }

@.str = private unnamed_addr constant [116 x i8] c"generated/home/dtcxzyw/WorkSpace/Projects/compilers/llvm-opt-benchmark/bench/libquic/libquic/boringssl/ssl/t1_lib.c\00", align 1

; Function Attrs: nounwind uwtable
define internal i32 @ext_ri_parse_serverhello(ptr noundef %0, ptr noundef %1, ptr noundef %2) #0 {
  %4 = alloca i32, align 4
  %5 = alloca ptr, align 8
  %6 = alloca ptr, align 8
  %7 = alloca ptr, align 8
  %8 = alloca i64, align 8
  %9 = alloca %struct.cbs_st, align 8
  %10 = alloca i32, align 4
  %11 = alloca ptr, align 8
  store ptr %0, ptr %5, align 8, !tbaa !69
  store ptr %1, ptr %6, align 8, !tbaa !55
  store ptr %2, ptr %7, align 8, !tbaa !52
  %12 = load ptr, ptr %5, align 8, !tbaa !69
  %13 = getelementptr inbounds nuw %struct.ssl_st, ptr %12, i32 0, i32 14
  %14 = load ptr, ptr %13, align 8, !tbaa !75
  %15 = getelementptr inbounds nuw %struct.ssl3_state_st, ptr %14, i32 0, i32 5
  %16 = load i8, ptr %15, align 1, !tbaa !181
  %17 = sext i8 %16 to i32
  %18 = icmp ne i32 %17, 0
  br i1 %18, label %19, label %31

19:                                               ; preds = %3
  %20 = load ptr, ptr %7, align 8, !tbaa !52
  %21 = icmp ne ptr %20, null
  %22 = zext i1 %21 to i32
  %23 = load ptr, ptr %5, align 8, !tbaa !69
  %24 = getelementptr inbounds nuw %struct.ssl_st, ptr %23, i32 0, i32 14
  %25 = load ptr, ptr %24, align 8, !tbaa !75
  %26 = getelementptr inbounds nuw %struct.ssl3_state_st, ptr %25, i32 0, i32 32
  %27 = load i32, ptr %26, align 4, !tbaa !131
  %28 = icmp ne i32 %22, %27
  br i1 %28, label %29, label %31

29:                                               ; preds = %19
  %30 = load ptr, ptr %6, align 8, !tbaa !55
  store i8 40, ptr %30, align 1, !tbaa !103
  call void @ERR_put_error(i32 noundef 16, i32 noundef 0, i32 noundef 202, ptr noundef @.str, i32 noundef 774)
  store i32 0, ptr %4, align 4
  br label %116

31:                                               ; preds = %19, %3
  %32 = load ptr, ptr %7, align 8, !tbaa !52
  %33 = icmp eq ptr %32, null
  br i1 %33, label %34, label %35

34:                                               ; preds = %31
  store i32 1, ptr %4, align 4
  br label %116

35:                                               ; preds = %31
  call void @llvm.lifetime.start.p0(i64 8, ptr %8) #8
  %36 = load ptr, ptr %5, align 8, !tbaa !69
  %37 = getelementptr inbounds nuw %struct.ssl_st, ptr %36, i32 0, i32 14
  %38 = load ptr, ptr %37, align 8, !tbaa !75
  %39 = getelementptr inbounds nuw %struct.ssl3_state_st, ptr %38, i32 0, i32 29
  %40 = load i8, ptr %39, align 8, !tbaa !180
  %41 = zext i8 %40 to i32
  %42 = load ptr, ptr %5, align 8, !tbaa !69
  %43 = getelementptr inbounds nuw %struct.ssl_st, ptr %42, i32 0, i32 14
  %44 = load ptr, ptr %43, align 8, !tbaa !75
  %45 = getelementptr inbounds nuw %struct.ssl3_state_st, ptr %44, i32 0, i32 31
  %46 = load i8, ptr %45, align 1, !tbaa !182
  %47 = zext i8 %46 to i32
  %48 = add nsw i32 %41, %47
  %49 = sext i32 %48 to i64
  store i64 %49, ptr %8, align 8, !tbaa !56
  call void @llvm.lifetime.start.p0(i64 16, ptr %9) #8
  %50 = load ptr, ptr %7, align 8, !tbaa !52
  %51 = call i32 @CBS_get_u8_length_prefixed(ptr noundef %50, ptr noundef %9)
  %52 = icmp ne i32 %51, 0
  br i1 %52, label %53, label %57

53:                                               ; preds = %35
  %54 = load ptr, ptr %7, align 8, !tbaa !52
  %55 = call i64 @CBS_len(ptr noundef %54)
  %56 = icmp ne i64 %55, 0
  br i1 %56, label %57, label %59

57:                                               ; preds = %53, %35
  call void @ERR_put_error(i32 noundef 16, i32 noundef 0, i32 noundef 201, ptr noundef @.str, i32 noundef 800)
  %58 = load ptr, ptr %6, align 8, !tbaa !55
  store i8 47, ptr %58, align 1, !tbaa !103
  store i32 0, ptr %4, align 4
  store i32 1, ptr %10, align 4
  br label %115

59:                                               ; preds = %53
  %60 = call i64 @CBS_len(ptr noundef %9)
  %61 = load i64, ptr %8, align 8, !tbaa !56
  %62 = icmp ne i64 %60, %61
  br i1 %62, label %63, label %65

63:                                               ; preds = %59
  call void @ERR_put_error(i32 noundef 16, i32 noundef 0, i32 noundef 202, ptr noundef @.str, i32 noundef 807)
  %64 = load ptr, ptr %6, align 8, !tbaa !55
  store i8 40, ptr %64, align 1, !tbaa !103
  store i32 0, ptr %4, align 4
  store i32 1, ptr %10, align 4
  br label %115

65:                                               ; preds = %59
  call void @llvm.lifetime.start.p0(i64 8, ptr %11) #8
  %66 = call ptr @CBS_data(ptr noundef %9)
  store ptr %66, ptr %11, align 8, !tbaa !55
  %67 = load ptr, ptr %11, align 8, !tbaa !55
  %68 = load ptr, ptr %5, align 8, !tbaa !69
  %69 = getelementptr inbounds nuw %struct.ssl_st, ptr %68, i32 0, i32 14
  %70 = load ptr, ptr %69, align 8, !tbaa !75
  %71 = getelementptr inbounds nuw %struct.ssl3_state_st, ptr %70, i32 0, i32 28
  %72 = getelementptr inbounds [64 x i8], ptr %71, i64 0, i64 0
  %73 = load ptr, ptr %5, align 8, !tbaa !69
  %74 = getelementptr inbounds nuw %struct.ssl_st, ptr %73, i32 0, i32 14
  %75 = load ptr, ptr %74, align 8, !tbaa !75
  %76 = getelementptr inbounds nuw %struct.ssl3_state_st, ptr %75, i32 0, i32 29
  %77 = load i8, ptr %76, align 8, !tbaa !180
  %78 = zext i8 %77 to i64
  %79 = call i32 @CRYPTO_memcmp(ptr noundef %67, ptr noundef %72, i64 noundef %78)
  %80 = icmp ne i32 %79, 0
  br i1 %80, label %81, label %83

81:                                               ; preds = %65
  call void @ERR_put_error(i32 noundef 16, i32 noundef 0, i32 noundef 202, ptr noundef @.str, i32 noundef 815)
  %82 = load ptr, ptr %6, align 8, !tbaa !55
  store i8 40, ptr %82, align 1, !tbaa !103
  store i32 0, ptr %4, align 4
  store i32 1, ptr %10, align 4
  br label %114

83:                                               ; preds = %65
  %84 = load ptr, ptr %5, align 8, !tbaa !69
  %85 = getelementptr inbounds nuw %struct.ssl_st, ptr %84, i32 0, i32 14
  %86 = load ptr, ptr %85, align 8, !tbaa !75
  %87 = getelementptr inbounds nuw %struct.ssl3_state_st, ptr %86, i32 0, i32 29
  %88 = load i8, ptr %87, align 8, !tbaa !180
  %89 = zext i8 %88 to i32
  %90 = load ptr, ptr %11, align 8, !tbaa !55
  %91 = sext i32 %89 to i64
  %92 = getelementptr inbounds i8, ptr %90, i64 %91
  store ptr %92, ptr %11, align 8, !tbaa !55
  %93 = load ptr, ptr %11, align 8, !tbaa !55
  %94 = load ptr, ptr %5, align 8, !tbaa !69
  %95 = getelementptr inbounds nuw %struct.ssl_st, ptr %94, i32 0, i32 14
  %96 = load ptr, ptr %95, align 8, !tbaa !75
  %97 = getelementptr inbounds nuw %struct.ssl3_state_st, ptr %96, i32 0, i32 30
  %98 = getelementptr inbounds [64 x i8], ptr %97, i64 0, i64 0
  %99 = load ptr, ptr %5, align 8, !tbaa !69
  %100 = getelementptr inbounds nuw %struct.ssl_st, ptr %99, i32 0, i32 14
  %101 = load ptr, ptr %100, align 8, !tbaa !75
  %102 = getelementptr inbounds nuw %struct.ssl3_state_st, ptr %101, i32 0, i32 31
  %103 = load i8, ptr %102, align 1, !tbaa !182
  %104 = zext i8 %103 to i64
  %105 = call i32 @CRYPTO_memcmp(ptr noundef %93, ptr noundef %98, i64 noundef %104)
  %106 = icmp ne i32 %105, 0
  br i1 %106, label %107, label %109

107:                                              ; preds = %83
  call void @ERR_put_error(i32 noundef 16, i32 noundef 0, i32 noundef 202, ptr noundef @.str, i32 noundef 823)
  %108 = load ptr, ptr %6, align 8, !tbaa !55
  store i8 47, ptr %108, align 1, !tbaa !103
  store i32 0, ptr %4, align 4
  store i32 1, ptr %10, align 4
  br label %114

109:                                              ; preds = %83
  %110 = load ptr, ptr %5, align 8, !tbaa !69
  %111 = getelementptr inbounds nuw %struct.ssl_st, ptr %110, i32 0, i32 14
  %112 = load ptr, ptr %111, align 8, !tbaa !75
  %113 = getelementptr inbounds nuw %struct.ssl3_state_st, ptr %112, i32 0, i32 32
  store i32 1, ptr %113, align 4, !tbaa !131
  store i32 1, ptr %4, align 4
  store i32 1, ptr %10, align 4
  br label %114

114:                                              ; preds = %109, %107, %81
  call void @llvm.lifetime.end.p0(i64 8, ptr %11) #8
  br label %115

115:                                              ; preds = %114, %63, %57
  call void @llvm.lifetime.end.p0(i64 16, ptr %9) #8
  call void @llvm.lifetime.end.p0(i64 8, ptr %8) #8
  br label %116

116:                                              ; preds = %115, %34, %29
  %117 = load i32, ptr %4, align 4
  ret i32 %117
}