; Function Attrs: nounwind uwtable
define internal range(i32 0, 2) i32 @ext_ri_parse_serverhello(ptr noundef readonly captures(none) %0, ptr noundef writeonly captures(none) %1, ptr noundef %2) #0 {
  %4 = alloca %struct.cbs_st, align 8
  %5 = getelementptr inbounds nuw i8, ptr %0, i64 80
  %6 = load ptr, ptr %5, align 8, !tbaa !58
  %7 = getelementptr inbounds nuw i8, ptr %6, i64 81
  %8 = load i8, ptr %7, align 1, !tbaa !150
  %.not = icmp eq i8 %8, 0
  br i1 %.not, label %15, label %9

9:                                                ; preds = %3
  %10 = icmp ne ptr %2, null
  %11 = zext i1 %10 to i32
  %12 = getelementptr inbounds nuw i8, ptr %6, i64 724
  %13 = load i32, ptr %12, align 4, !tbaa !110
  %.not24 = icmp eq i32 %13, %11
  br i1 %.not24, label %15, label %14

14:                                               ; preds = %9
  store i8 40, ptr %1, align 1, !tbaa !90
  tail call void @ERR_put_error(i32 noundef 16, i32 noundef 0, i32 noundef 202, ptr noundef nonnull @.str, i32 noundef 774) #21
  br label %57

15:                                               ; preds = %9, %3
  %16 = icmp eq ptr %2, null
  br i1 %16, label %57, label %17

17:                                               ; preds = %15
  %18 = getelementptr inbounds nuw i8, ptr %6, i64 656
  %19 = load i8, ptr %18, align 8, !tbaa !149
  %20 = zext i8 %19 to i64
  %21 = getelementptr inbounds nuw i8, ptr %6, i64 721
  %22 = load i8, ptr %21, align 1, !tbaa !151
  %23 = zext i8 %22 to i64
  %24 = add nuw nsw i64 %23, %20
  call void @llvm.lifetime.start.p0(i64 16, ptr nonnull %4) #21
  %25 = call i32 @CBS_get_u8_length_prefixed(ptr noundef nonnull %2, ptr noundef nonnull %4) #21
  %.not25 = icmp eq i32 %25, 0
  br i1 %.not25, label %28, label %26

26:                                               ; preds = %17
  %27 = call i64 @CBS_len(ptr noundef nonnull %2) #21
  %.not26 = icmp eq i64 %27, 0
  br i1 %.not26, label %29, label %28

28:                                               ; preds = %26, %17
  call void @ERR_put_error(i32 noundef 16, i32 noundef 0, i32 noundef 201, ptr noundef nonnull @.str, i32 noundef 800) #21
  store i8 47, ptr %1, align 1, !tbaa !90
  br label %56

29:                                               ; preds = %26
  %30 = call i64 @CBS_len(ptr noundef nonnull %4) #21
  %.not27 = icmp eq i64 %30, %24
  br i1 %.not27, label %32, label %31

31:                                               ; preds = %29
  call void @ERR_put_error(i32 noundef 16, i32 noundef 0, i32 noundef 202, ptr noundef nonnull @.str, i32 noundef 807) #21
  store i8 40, ptr %1, align 1, !tbaa !90
  br label %56

32:                                               ; preds = %29
  %33 = call ptr @CBS_data(ptr noundef nonnull %4) #21
  %34 = load ptr, ptr %5, align 8, !tbaa !58
  %35 = getelementptr inbounds nuw i8, ptr %34, i64 592
  %36 = getelementptr inbounds nuw i8, ptr %34, i64 656
  %37 = load i8, ptr %36, align 8, !tbaa !149
  %38 = zext i8 %37 to i64
  %39 = call i32 @CRYPTO_memcmp(ptr noundef %33, ptr noundef nonnull %35, i64 noundef %38) #21
  %.not28 = icmp eq i32 %39, 0
  br i1 %.not28, label %41, label %40

40:                                               ; preds = %32
  call void @ERR_put_error(i32 noundef 16, i32 noundef 0, i32 noundef 202, ptr noundef nonnull @.str, i32 noundef 815) #21
  store i8 40, ptr %1, align 1, !tbaa !90
  br label %56

41:                                               ; preds = %32
  %42 = load ptr, ptr %5, align 8, !tbaa !58
  %43 = getelementptr inbounds nuw i8, ptr %42, i64 656
  %44 = load i8, ptr %43, align 8, !tbaa !149
  %45 = zext i8 %44 to i64
  %46 = getelementptr inbounds nuw i8, ptr %33, i64 %45
  %47 = getelementptr inbounds nuw i8, ptr %42, i64 657
  %48 = getelementptr inbounds nuw i8, ptr %42, i64 721
  %49 = load i8, ptr %48, align 1, !tbaa !151
  %50 = zext i8 %49 to i64
  %51 = call i32 @CRYPTO_memcmp(ptr noundef %46, ptr noundef nonnull %47, i64 noundef %50) #21
  %.not29 = icmp eq i32 %51, 0
  br i1 %.not29, label %53, label %52

52:                                               ; preds = %41
  call void @ERR_put_error(i32 noundef 16, i32 noundef 0, i32 noundef 202, ptr noundef nonnull @.str, i32 noundef 823) #21
  store i8 47, ptr %1, align 1, !tbaa !90
  br label %56

53:                                               ; preds = %41
  %54 = load ptr, ptr %5, align 8, !tbaa !58
  %55 = getelementptr inbounds nuw i8, ptr %54, i64 724
  store i32 1, ptr %55, align 4, !tbaa !110
  br label %56

56:                                               ; preds = %40, %52, %53, %31, %28
  %.1 = phi i32 [ 0, %28 ], [ 0, %31 ], [ 0, %40 ], [ 0, %52 ], [ 1, %53 ]
  call void @llvm.lifetime.end.p0(i64 16, ptr nonnull %4) #21
  br label %57

57:                                               ; preds = %15, %56, %14
  %.0 = phi i32 [ 0, %14 ], [ %.1, %56 ], [ 1, %15 ]
  ret i32 %.0
}